target datalayout = "e-m:e-p270:32:32-p271:32:32-p272:64:64-i64:64-i128:128-f80:128-n8:16:32:64-S128"
target triple = "x86_64-pc-linux-gnu"

%struct._FUserData = type { ptr, ptr, ptr, ptr, ptr, ptr, ptr, ptr, ptr }

@.str = private unnamed_addr constant [38 x i8] c"Error in IpStdFInterface eval_jac_g!\0A\00", align 1

; Function Attrs: nounwind uwtable
define internal zeroext i1 @eval_jac_g(i32 noundef %0, ptr noundef %1, i1 noundef zeroext %2, i32 noundef %3, i32 noundef %4, ptr noundef %5, ptr noundef %6, ptr noundef %7, ptr noundef %8) #0 {
  %10 = alloca i1, align 1
  %11 = alloca i32, align 4
  %12 = alloca ptr, align 8
  %13 = alloca i8, align 1
  %14 = alloca i32, align 4
  %15 = alloca i32, align 4
  %16 = alloca ptr, align 8
  %17 = alloca ptr, align 8
  %18 = alloca ptr, align 8
  %19 = alloca ptr, align 8
  %20 = alloca i32, align 4
  %21 = alloca i32, align 4
  %22 = alloca i32, align 4
  %23 = alloca i32, align 4
  %24 = alloca i32, align 4
  %25 = alloca ptr, align 8
  %26 = alloca ptr, align 8
  %27 = alloca ptr, align 8
  %28 = alloca i32, align 4
  %29 = alloca i32, align 4
  store i32 %0, ptr %11, align 4, !tbaa !11
  store ptr %1, ptr %12, align 8, !tbaa !8
  %30 = zext i1 %2 to i8
  store i8 %30, ptr %13, align 1, !tbaa !24
  store i32 %3, ptr %14, align 4, !tbaa !11
  store i32 %4, ptr %15, align 4, !tbaa !11
  store ptr %5, ptr %16, align 8, !tbaa !3
  store ptr %6, ptr %17, align 8, !tbaa !3
  store ptr %7, ptr %18, align 8, !tbaa !8
  store ptr %8, ptr %19, align 8, !tbaa !10
  call void @llvm.lifetime.start.p0(i64 4, ptr %20) #6
  %31 = load i32, ptr %11, align 4, !tbaa !11
  store i32 %31, ptr %20, align 4, !tbaa !11
  call void @llvm.lifetime.start.p0(i64 4, ptr %21) #6
  %32 = load i8, ptr %13, align 1, !tbaa !24, !range !26, !noundef !27
  %33 = trunc i8 %32 to i1
  %34 = zext i1 %33 to i32
  store i32 %34, ptr %21, align 4, !tbaa !11
  call void @llvm.lifetime.start.p0(i64 4, ptr %22) #6
  %35 = load i32, ptr %14, align 4, !tbaa !11
  store i32 %35, ptr %22, align 4, !tbaa !11
  call void @llvm.lifetime.start.p0(i64 4, ptr %23) #6
  %36 = load i32, ptr %15, align 4, !tbaa !11
  store i32 %36, ptr %23, align 4, !tbaa !11
  call void @llvm.lifetime.start.p0(i64 4, ptr %24) #6
  call void @llvm.lifetime.start.p0(i64 8, ptr %25) #6
  %37 = load ptr, ptr %19, align 8, !tbaa !10
  store ptr %37, ptr %25, align 8, !tbaa !13
  call void @llvm.lifetime.start.p0(i64 8, ptr %26) #6
  %38 = load ptr, ptr %25, align 8, !tbaa !13
  %39 = getelementptr inbounds nuw %struct._FUserData, ptr %38, i32 0, i32 0
  %40 = load ptr, ptr %39, align 8, !tbaa !28
  store ptr %40, ptr %26, align 8, !tbaa !3
  call void @llvm.lifetime.start.p0(i64 8, ptr %27) #6
  %41 = load ptr, ptr %25, align 8, !tbaa !13
  %42 = getelementptr inbounds nuw %struct._FUserData, ptr %41, i32 0, i32 1
  %43 = load ptr, ptr %42, align 8, !tbaa !29
  store ptr %43, ptr %27, align 8, !tbaa !8
  call void @llvm.lifetime.start.p0(i64 4, ptr %28) #6
  store i32 0, ptr %28, align 4, !tbaa !11
  %44 = load ptr, ptr %16, align 8, !tbaa !3
  %45 = icmp ne ptr %44, null
  br i1 %45, label %46, label %53

46:                                               ; preds = %9
  %47 = load ptr, ptr %17, align 8, !tbaa !3
  %48 = icmp ne ptr %47, null
  br i1 %48, label %49, label %53

49:                                               ; preds = %46
  %50 = load ptr, ptr %18, align 8, !tbaa !8
  %51 = icmp eq ptr %50, null
  br i1 %51, label %52, label %53

52:                                               ; preds = %49
  store i32 0, ptr %24, align 4, !tbaa !11
  br label %66

53:                                               ; preds = %49, %46, %9
  %54 = load ptr, ptr %16, align 8, !tbaa !3
  %55 = icmp eq ptr %54, null
  br i1 %55, label %56, label %63

56:                                               ; preds = %53
  %57 = load ptr, ptr %17, align 8, !tbaa !3
  %58 = icmp eq ptr %57, null
  br i1 %58, label %59, label %63

59:                                               ; preds = %56
  %60 = load ptr, ptr %18, align 8, !tbaa !8
  %61 = icmp ne ptr %60, null
  br i1 %61, label %62, label %63

62:                                               ; preds = %59
  store i32 1, ptr %24, align 4, !tbaa !11
  br label %65

63:                                               ; preds = %59, %56, %53
  %64 = call i32 (ptr, ...) @printf(ptr noundef @.str)
  store i1 false, ptr %10, align 1
  store i32 1, ptr %29, align 4
  br label %78

65:                                               ; preds = %62
  br label %66

66:                                               ; preds = %65, %52
  %67 = load ptr, ptr %25, align 8, !tbaa !13
  %68 = getelementptr inbounds nuw %struct._FUserData, ptr %67, i32 0, i32 5
  %69 = load ptr, ptr %68, align 8, !tbaa !21
  %70 = load ptr, ptr %12, align 8, !tbaa !8
  %71 = load ptr, ptr %16, align 8, !tbaa !3
  %72 = load ptr, ptr %17, align 8, !tbaa !3
  %73 = load ptr, ptr %18, align 8, !tbaa !8
  %74 = load ptr, ptr %26, align 8, !tbaa !3
  %75 = load ptr, ptr %27, align 8, !tbaa !8
  call void %69(ptr noundef %24, ptr noundef %20, ptr noundef %70, ptr noundef %21, ptr noundef %22, ptr noundef %23, ptr noundef %71, ptr noundef %72, ptr noundef %73, ptr noundef %74, ptr noundef %75, ptr noundef %28)
  %76 = load i32, ptr %28, align 4, !tbaa !11
  %77 = icmp eq i32 %76, 0
  store i1 %77, ptr %10, align 1
  store i32 1, ptr %29, align 4
  br label %78

78:                                               ; preds = %66, %63
  call void @llvm.lifetime.end.p0(i64 4, ptr %28) #6
  call void @llvm.lifetime.end.p0(i64 8, ptr %27) #6
  call void @llvm.lifetime.end.p0(i64 8, ptr %26) #6
  call void @llvm.lifetime.end.p0(i64 8, ptr %25) #6
  call void @llvm.lifetime.end.p0(i64 4, ptr %24) #6
  call void @llvm.lifetime.end.p0(i64 4, ptr %23) #6
  call void @llvm.lifetime.end.p0(i64 4, ptr %22) #6
  call void @llvm.lifetime.end.p0(i64 4, ptr %21) #6
  call void @llvm.lifetime.end.p0(i64 4, ptr %20) #6
  %79 = load i1, ptr %10, align 1
  ret i1 %79
}