; Function Attrs: nounwind uwtable
define internal zeroext i1 @eval_jac_g(i32 noundef %0, ptr noundef %1, i1 noundef zeroext %2, i32 noundef %3, i32 noundef %4, ptr noundef %5, ptr noundef %6, ptr noundef %7, ptr noundef readonly captures(none) %8) #0 {
  %10 = alloca i32, align 4
  %11 = alloca i32, align 4
  %12 = alloca i32, align 4
  %13 = alloca i32, align 4
  %14 = alloca i32, align 4
  %15 = alloca i32, align 4
  call void @llvm.lifetime.start.p0(i64 4, ptr nonnull %10) #8
  store i32 %0, ptr %10, align 4, !tbaa !3
  call void @llvm.lifetime.start.p0(i64 4, ptr nonnull %11) #8
  %16 = zext i1 %2 to i32
  store i32 %16, ptr %11, align 4, !tbaa !3
  call void @llvm.lifetime.start.p0(i64 4, ptr nonnull %12) #8
  store i32 %3, ptr %12, align 4, !tbaa !3
  call void @llvm.lifetime.start.p0(i64 4, ptr nonnull %13) #8
  store i32 %4, ptr %13, align 4, !tbaa !3
  call void @llvm.lifetime.start.p0(i64 4, ptr nonnull %14) #8
  %17 = load ptr, ptr %8, align 8, !tbaa !19
  %18 = getelementptr inbounds nuw i8, ptr %8, i64 8
  %19 = load ptr, ptr %18, align 8, !tbaa !20
  call void @llvm.lifetime.start.p0(i64 4, ptr nonnull %15) #8
  store i32 0, ptr %15, align 4, !tbaa !3
  %20 = icmp ne ptr %5, null
  %21 = icmp ne ptr %6, null
  %or.cond = and i1 %20, %21
  %22 = icmp eq ptr %7, null
  %or.cond3 = and i1 %or.cond, %22
  br i1 %or.cond3, label %28, label %23

23:                                               ; preds = %9
  %24 = icmp eq ptr %5, null
  %25 = icmp eq ptr %6, null
  %or.cond5 = and i1 %24, %25
  %26 = icmp ne ptr %7, null
  %or.cond7 = and i1 %or.cond5, %26
  br i1 %or.cond7, label %28, label %27

27:                                               ; preds = %23
  %puts = tail call i32 @puts(ptr nonnull dereferenceable(1) @str)
  br label %33

28:                                               ; preds = %23, %9
  %storemerge = phi i32 [ 0, %9 ], [ 1, %23 ]
  store i32 %storemerge, ptr %14, align 4, !tbaa !3
  %29 = getelementptr inbounds nuw i8, ptr %8, i64 40
  %30 = load ptr, ptr %29, align 8, !tbaa !16
  call void %30(ptr noundef nonnull %14, ptr noundef nonnull %10, ptr noundef %1, ptr noundef nonnull %11, ptr noundef nonnull %12, ptr noundef nonnull %13, ptr noundef %5, ptr noundef %6, ptr noundef %7, ptr noundef %17, ptr noundef %19, ptr noundef nonnull %15) #8
  %31 = load i32, ptr %15, align 4, !tbaa !3
  %32 = icmp eq i32 %31, 0
  br label %33

33:                                               ; preds = %28, %27
  %.0 = phi i1 [ %32, %28 ], [ false, %27 ]
  call void @llvm.lifetime.end.p0(i64 4, ptr nonnull %15) #8
  call void @llvm.lifetime.end.p0(i64 4, ptr nonnull %14) #8
  call void @llvm.lifetime.end.p0(i64 4, ptr nonnull %13) #8
  call void @llvm.lifetime.end.p0(i64 4, ptr nonnull %12) #8
  call void @llvm.lifetime.end.p0(i64 4, ptr nonnull %11) #8
  call void @llvm.lifetime.end.p0(i64 4, ptr nonnull %10) #8
  ret i1 %.0
}